# SymbolsHelper-Confirmed: 6.5.0 amd64 arm64 armel armhf hurd-i386 i386 mips64el powerpc ppc64 ppc64el riscv64 s390x sparc64
libKF6DBusAddons.so.6 libkf6dbusaddons6 #MINVER#
* Build-Depends-Package: libkf6dbusaddons-dev
 _ZGVZN9QMetaType21registerConverterImplI4QMapI7QStringS2_E9QIterableI16QMetaAssociationEEEbSt8functionIFbPKvPvEES_S_E10unregister@Base 6.0.0
 _ZGVZN9QMetaType21registerConverterImplI5QListI4QUrlE9QIterableI13QMetaSequenceEEEbSt8functionIFbPKvPvEES_S_E10unregister@Base 6.0.0
 _ZGVZN9QMetaType23registerMutableViewImplI4QMapI7QStringS2_E9QIterableI16QMetaAssociationEEEbSt8functionIFbPvS8_EES_S_E10unregister@Base 6.0.0
 _ZGVZN9QMetaType23registerMutableViewImplI5QListI4QUrlE9QIterableI13QMetaSequenceEEEbSt8functionIFbPvS8_EES_S_E10unregister@Base 6.0.0
 _ZN10KDEDModule11qt_metacallEN11QMetaObject4CallEiPPv@Base 6.0.0
 _ZN10KDEDModule11qt_metacastEPKc@Base 6.0.0
 _ZN10KDEDModule13setModuleNameERK7QString@Base 6.0.0
 _ZN10KDEDModule16moduleForMessageERK12QDBusMessage@Base 6.0.0
 _ZN10KDEDModule16moduleRegisteredERK15QDBusObjectPath@Base 6.0.0
 _ZN10KDEDModule16staticMetaObjectE@Base 6.0.0
 _ZN10KDEDModule16windowRegisteredEx@Base 6.0.0
 _ZN10KDEDModule18windowUnregisteredEx@Base 6.0.0
 _ZN10KDEDModuleC1EP7QObject@Base 6.0.0
 _ZN10KDEDModuleC2EP7QObject@Base 6.0.0
 _ZN10KDEDModuleD0Ev@Base 6.0.0
 _ZN10KDEDModuleD1Ev@Base 6.0.0
 _ZN10KDEDModuleD2Ev@Base 6.0.0
 _ZN12KDBusService10unregisterEv@Base 6.0.0
 _ZN12KDBusService11qt_metacallEN11QMetaObject4CallEiPPv@Base 6.0.0
 _ZN12KDBusService11qt_metacastEPKc@Base 6.0.0
 _ZN12KDBusService12setExitValueEi@Base 6.0.0
 _ZN12KDBusService13openRequestedERK5QListI4QUrlE@Base 6.0.0
 _ZN12KDBusService16staticMetaObjectE@Base 6.0.0
 _ZN12KDBusService17activateRequestedERK5QListI7QStringERKS1_@Base 6.0.0
 _ZN12KDBusService23activateActionRequestedERK7QStringRK8QVariant@Base 6.0.0
 _ZN12KDBusServiceC1E6QFlagsINS_13StartupOptionEEP7QObject@Base 6.0.0
 _ZN12KDBusServiceC2E6QFlagsINS_13StartupOptionEEP7QObject@Base 6.0.0
 _ZN12KDBusServiceD0Ev@Base 6.0.0
 _ZN12KDBusServiceD1Ev@Base 6.0.0
 _ZN12KDBusServiceD2Ev@Base 6.0.0
 _ZN13QMetaSequence12MetaSequenceI5QListI4QUrlEE5valueE@Base 6.0.0
 _ZN16QMetaAssociation15MetaAssociationI4QMapI7QStringS2_EE5valueE@Base 6.0.0
 _ZN27KUpdateLaunchEnvironmentJob11qt_metacallEN11QMetaObject4CallEiPPv@Base 6.0.0
 _ZN27KUpdateLaunchEnvironmentJob11qt_metacastEPKc@Base 6.0.0
 _ZN27KUpdateLaunchEnvironmentJob16staticMetaObjectE@Base 6.0.0
 _ZN27KUpdateLaunchEnvironmentJob8finishedEv@Base 6.0.0
 _ZN27KUpdateLaunchEnvironmentJobC1ERK19QProcessEnvironment@Base 6.0.0
 _ZN27KUpdateLaunchEnvironmentJobC2ERK19QProcessEnvironment@Base 6.0.0
 _ZN27KUpdateLaunchEnvironmentJobD0Ev@Base 6.0.0
 _ZN27KUpdateLaunchEnvironmentJobD1Ev@Base 6.0.0
 _ZN27KUpdateLaunchEnvironmentJobD2Ev@Base 6.0.0
 _ZNK10KDEDModule10metaObjectEv@Base 6.0.0
 _ZNK10KDEDModule10moduleNameEv@Base 6.0.0
 _ZNK12KDBusService10metaObjectEv@Base 6.0.0
 _ZNK12KDBusService11serviceNameEv@Base 6.0.0
 _ZNK12KDBusService12errorMessageEv@Base 6.0.0
 _ZNK12KDBusService12isRegisteredEv@Base 6.0.0
 _ZNK27KUpdateLaunchEnvironmentJob10metaObjectEv@Base 6.0.0
 (optional=templinst)_ZNKSt8_Rb_treeI7QStringSt4pairIKS0_8QVariantESt10_Select1stIS4_ESt4lessIS0_ESaIS4_EE4findERS2_@Base 6.0.0
 (optional=templinst)_ZNKSt8_Rb_treeI7QStringSt4pairIKS0_S0_ESt10_Select1stIS3_ESt4lessIS0_ESaIS3_EE4findERS2_@Base 6.0.0
 (optional=templinst)_ZNSt8_Rb_treeI7QStringSt4pairIKS0_8QVariantESt10_Select1stIS4_ESt4lessIS0_ESaIS4_EE24_M_get_insert_unique_posERS2_@Base 6.0.0
 (optional=templinst|arch=amd64 arm64 mips64el ppc64el riscv64 sparc64)_ZNSt8_Rb_treeI7QStringSt4pairIKS0_8QVariantESt10_Select1stIS4_ESt4lessIS0_ESaIS4_EE29_M_get_insert_hint_unique_posESt23_Rb_tree_const_iteratorIS4_ERS2_@Base 6.0.0
 (optional=templinst|arch=!hurd-i386 !i386)_ZNSt8_Rb_treeI7QStringSt4pairIKS0_S0_ESt10_Select1stIS3_ESt4lessIS0_ESaIS3_EE11equal_rangeERS2_@Base 6.0.0
 (optional=templinst)_ZNSt8_Rb_treeI7QStringSt4pairIKS0_S0_ESt10_Select1stIS3_ESt4lessIS0_ESaIS3_EE12_M_erase_auxESt23_Rb_tree_const_iteratorIS3_ESB_@Base 6.0.0
 (optional=templinst)_ZNSt8_Rb_treeI7QStringSt4pairIKS0_S0_ESt10_Select1stIS3_ESt4lessIS0_ESaIS3_EE24_M_get_insert_unique_posERS2_@Base 6.0.0
 (optional=templinst)_ZNSt8_Rb_treeI7QStringSt4pairIKS0_S0_ESt10_Select1stIS3_ESt4lessIS0_ESaIS3_EE29_M_get_insert_hint_unique_posESt23_Rb_tree_const_iteratorIS3_ERS2_@Base 6.0.0
 (optional=templinst)_ZNSt8_Rb_treeI7QStringSt4pairIKS0_S0_ESt10_Select1stIS3_ESt4lessIS0_ESaIS3_EE4findERS2_@Base 6.0.0
 _ZTI10KDEDModule@Base 6.0.0
 _ZTI12KDBusService@Base 6.0.0
 _ZTI27KUpdateLaunchEnvironmentJob@Base 6.0.0
 _ZTIZN9QMetaType17registerConverterI4QMapI7QStringS2_E9QIterableI16QMetaAssociationEN9QtPrivate34QAssociativeIterableConvertFunctorIS3_EEEEbT1_EUlPKvPvE_@Base 6.0.0
 _ZTIZN9QMetaType17registerConverterI5QListI4QUrlE9QIterableI13QMetaSequenceEN9QtPrivate33QSequentialIterableConvertFunctorIS3_EEEEbT1_EUlPKvPvE_@Base 6.0.0
 _ZTIZN9QMetaType19registerMutableViewI4QMapI7QStringS2_E9QIterableI16QMetaAssociationEN9QtPrivate38QAssociativeIterableMutableViewFunctorIS3_EEEEbT1_EUlPvSB_E_@Base 6.0.0
 _ZTIZN9QMetaType19registerMutableViewI5QListI4QUrlE9QIterableI13QMetaSequenceEN9QtPrivate37QSequentialIterableMutableViewFunctorIS3_EEEEbT1_EUlPvSB_E_@Base 6.0.0
 _ZTS10KDEDModule@Base 6.0.0
 _ZTS12KDBusService@Base 6.0.0
 _ZTS27KUpdateLaunchEnvironmentJob@Base 6.0.0
 _ZTSZN9QMetaType17registerConverterI4QMapI7QStringS2_E9QIterableI16QMetaAssociationEN9QtPrivate34QAssociativeIterableConvertFunctorIS3_EEEEbT1_EUlPKvPvE_@Base 6.0.0
 _ZTSZN9QMetaType17registerConverterI5QListI4QUrlE9QIterableI13QMetaSequenceEN9QtPrivate33QSequentialIterableConvertFunctorIS3_EEEEbT1_EUlPKvPvE_@Base 6.0.0
 _ZTSZN9QMetaType19registerMutableViewI4QMapI7QStringS2_E9QIterableI16QMetaAssociationEN9QtPrivate38QAssociativeIterableMutableViewFunctorIS3_EEEEbT1_EUlPvSB_E_@Base 6.0.0
 _ZTSZN9QMetaType19registerMutableViewI5QListI4QUrlE9QIterableI13QMetaSequenceEN9QtPrivate37QSequentialIterableMutableViewFunctorIS3_EEEEbT1_EUlPvSB_E_@Base 6.0.0
 _ZTV10KDEDModule@Base 6.0.0
 _ZTV12KDBusService@Base 6.0.0
 _ZTV27KUpdateLaunchEnvironmentJob@Base 6.0.0
 (optional=templinst)_ZZN9QMetaType21registerConverterImplI4QMapI7QStringS2_E9QIterableI16QMetaAssociationEEEbSt8functionIFbPKvPvEES_S_E10unregister@Base 6.0.0
 (optional=templinst)_ZZN9QMetaType21registerConverterImplI5QListI4QUrlE9QIterableI13QMetaSequenceEEEbSt8functionIFbPKvPvEES_S_E10unregister@Base 6.0.0
 (optional=templinst)_ZZN9QMetaType23registerMutableViewImplI4QMapI7QStringS2_E9QIterableI16QMetaAssociationEEEbSt8functionIFbPvS8_EES_S_E10unregister@Base 6.0.0
 (optional=templinst)_ZZN9QMetaType23registerMutableViewImplI5QListI4QUrlE9QIterableI13QMetaSequenceEEEbSt8functionIFbPvS8_EES_S_E10unregister@Base 6.0.0
